ccopy_reg
_reconstructor
p0
(cseisflows.optimize.base
base
p1
c__builtin__
object
p2
Ntp3
Rp4
(dp5
S'step_count'
p6
I1
sS'isbest'
p7
I1
sS'stepwriter'
p8
g0
(cseisflows.optimize.lib.io
StepWriter
p9
g2
Ntp10
Rp11
(dp12
S'iter'
p13
I5
sS'filename'
p14
S'/home/dborisov/tests/checkers/output.optim'
p15
sbsS'restarted'
p16
I0
sS'writer'
p17
g0
(cseisflows.optimize.lib.io
Writer
p18
g2
Ntp19
Rp20
(dp21
S'path'
p22
S'/home/dborisov/tests/checkers/output/NonlinearOptimization'
p23
sbsg13
I5
sS'isbrak'
p24
I0
sS'search_history'
p25
(lp26
(lp27
F0.0
aF0.009899534082282677
aa(lp28
F1.0
aF0.007113042402690078
aasS'LBFGS'
p29
g0
(cseisflows.optimize.lib.LBFGS
LBFGS
p30
g2
Ntp31
Rp32
(dp33
S'load'
p34
cseisflows.tools.array
loadnpy
p35
sS'memory_used'
p36
I3
sS'memory'
p37
I3
sg13
I5
sS'precond'
p38
NsS'maxiter'
p39
Finf
sS'thresh'
p40
F0.0
sg22
S'/home/dborisov/tests/checkers/scratch/optimize'
p41
sS'save'
p42
cseisflows.tools.array
savenpy
p43
sbsS'isdone'
p44
I1
sb.