ccopy_reg
_reconstructor
p0
(cseisflows.preprocess.legacy
legacy
p1
c__builtin__
object
p2
Ntp3
Rp4
(dp5
S'misfit'
p6
cseisflows.seistools.misfit
Waveform
p7
sS'channels'
p8
(lp9
S'y'
p10
asS'adjoint'
p11
cseisflows.seistools.adjoint
Waveform
p12
sS'writer'
p13
cseisflows.seistools.writers
su_specfem2d
p14
sS'reader'
p15
cseisflows.seistools.readers
su_specfem2d
p16
sb.