ccopy_reg
_reconstructor
p0
(cseisflows.solver.specfem2d
specfem2d
p1
c__builtin__
object
p2
Ntp3
Rp4
(dp5
S'_mesh_properties'
p6
g0
(cseisflows.tools.code
Struct
p7
c__builtin__
dict
p8
(dp9
S'ngll'
p10
(lp11
I40000
asS'nproc'
p12
I1
stp13
Rp14
g14
bsS'_source_names'
p15
(lp16
S'000000'
p17
asb.